Certificate:
    Data:
        Version: 3 (0x2)
        Serial Number:
            91:0f:6e:26:54:c8:3d:79:da:bf:15:38:75:c3:d3:08
        Signature Algorithm: sha256WithRSAEncryption
        Issuer: CN=Easy-RSA CA
        Validity
            Not Before: Jun  6 19:46:42 2026 GMT
            Not After : Sep  8 19:46:42 2028 GMT
        Subject: CN=client
        Subject Public Key Info:
            Public Key Algorithm: rsaEncryption
                Public-Key: (2048 bit)
                Modulus:
                    00:d1:72:80:d3:20:79:88:10:7b:c4:97:d8:6e:cc:
                    5a:f1:9d:fe:16:78:3e:d5:1e:cd:ed:bb:04:ea:69:
                    bf:90:d6:67:73:28:f3:c3:dc:b9:2a:b2:10:d0:0c:
                    9d:a2:14:a9:2b:7c:74:8e:2b:9a:4a:d3:66:1d:91:
                    84:8c:cc:d3:9a:c3:ff:c8:31:19:eb:16:f1:c1:9d:
                    a1:b7:86:81:52:e6:71:0f:87:c1:c6:5c:9a:9e:92:
                    28:df:4c:f7:ca:b3:f8:44:79:52:36:17:cf:b5:a9:
                    92:8b:8b:18:58:1f:79:a9:21:a3:6f:0c:12:19:77:
                    0c:61:ff:4d:44:d9:25:13:1b:91:82:4e:d3:5a:82:
                    75:ad:92:8b:68:5b:a4:b1:5b:6e:58:d5:fd:ad:4f:
                    84:58:fc:fe:50:a9:ad:8e:c0:aa:7b:53:1e:26:42:
                    57:87:0b:4b:85:b5:55:c1:6b:2a:d4:6a:d1:5e:48:
                    ef:73:0d:a0:b6:f9:ae:5d:f8:12:d8:9b:df:fc:9a:
                    e5:ad:01:ab:7c:cc:d3:bc:70:c7:89:76:39:48:6c:
                    c9:5a:47:8e:31:86:af:95:2a:40:89:7a:15:3d:83:
                    b7:15:ba:ef:30:9a:3d:11:3a:1c:79:19:14:c2:f5:
                    3b:2b:66:9d:ef:24:99:ce:d5:9d:15:03:a7:7f:33:
                    4f:bb
                Exponent: 65537 (0x10001)
        X509v3 extensions:
            X509v3 Basic Constraints: 
                CA:FALSE
            X509v3 Subject Key Identifier: 
                BB:47:85:51:EC:84:BF:C6:51:BD:A5:AD:BF:EA:2B:4A:00:5F:68:02
            X509v3 Authority Key Identifier: 
                keyid:05:3D:C7:95:07:B2:D9:27:1E:42:B1:2B:D4:53:30:C8:88:29:F4:4D
                DirName:/CN=Easy-RSA CA
                serial:4F:83:3F:F1:35:7E:77:5E:8F:F8:1D:B6:C9:F4:90:4F:09:CD:B1:64
            X509v3 Extended Key Usage: 
                TLS Web Client Authentication
            X509v3 Key Usage: 
                Digital Signature
    Signature Algorithm: sha256WithRSAEncryption
    Signature Value:
        af:b3:fd:a3:a7:22:7a:51:70:65:ff:01:3e:ad:42:6d:60:f0:
        91:5d:45:32:1e:c8:2e:49:98:28:f9:0b:5a:1e:b8:72:27:21:
        60:a1:80:e3:34:5f:1c:72:13:41:0b:54:54:13:d5:b1:79:11:
        c1:be:d7:28:25:56:ea:79:19:65:d3:3a:dc:ea:4b:3c:1f:b9:
        9f:1f:04:1d:de:92:bf:4e:bf:cd:03:4e:4e:eb:a0:b3:c9:f7:
        b8:40:9a:50:67:ae:76:1d:32:7c:4d:93:00:81:04:14:5b:12:
        43:57:85:b8:b3:da:e3:6f:fa:e8:10:91:28:9f:77:9a:3b:91:
        54:1c:ea:dd:50:9e:51:88:32:09:b9:37:58:73:d4:0c:59:d6:
        a5:b5:66:41:79:b8:6e:dd:de:a6:a9:ab:2d:e2:36:3c:17:dc:
        55:2d:ce:d5:b4:fc:b0:fa:e0:34:91:d3:35:c4:19:93:08:79:
        06:71:18:40:24:b8:e5:b8:ab:a0:6d:9d:fa:28:a7:74:c3:d5:
        2e:6d:a2:36:db:ec:52:24:81:d5:c4:fd:fa:88:8b:58:2b:0c:
        42:ed:1a:0c:da:bb:82:1a:76:e9:e6:bd:d9:22:89:b4:2c:e7:
        02:77:9f:00:15:5b:ec:eb:17:67:3f:3b:9f:4b:cf:12:43:85:
        91:0b:6d:9f
-----BEGIN CERTIFICATE-----
MIIDVTCCAj2gAwIBAgIRAJEPbiZUyD152r8VOHXD0wgwDQYJKoZIhvcNAQELBQAw
FjEUMBIGA1UEAwwLRWFzeS1SU0EgQ0EwHhcNMjYwNjA2MTk0NjQyWhcNMjgwOTA4
MTk0NjQyWjARMQ8wDQYDVQQDDAZjbGllbnQwggEiMA0GCSqGSIb3DQEBAQUAA4IB
DwAwggEKAoIBAQDRcoDTIHmIEHvEl9huzFrxnf4WeD7VHs3tuwTqab+Q1mdzKPPD
3LkqshDQDJ2iFKkrfHSOK5pK02YdkYSMzNOaw//IMRnrFvHBnaG3hoFS5nEPh8HG
XJqekijfTPfKs/hEeVI2F8+1qZKLixhYH3mpIaNvDBIZdwxh/01E2SUTG5GCTtNa
gnWtkotoW6SxW25Y1f2tT4RY/P5Qqa2OwKp7Ux4mQleHC0uFtVXBayrUatFeSO9z
DaC2+a5d+BLYm9/8muWtAat8zNO8cMeJdjlIbMlaR44xhq+VKkCJehU9g7cVuu8w
mj0ROhx5GRTC9TsrZp3vJJnO1Z0VA6d/M0+7AgMBAAGjgaIwgZ8wCQYDVR0TBAIw
ADAdBgNVHQ4EFgQUu0eFUeyEv8ZRvaWtv+orSgBfaAIwUQYDVR0jBEowSIAUBT3H
lQey2SceQrEr1FMwyIgp9E2hGqQYMBYxFDASBgNVBAMMC0Vhc3ktUlNBIENBghRP
gz/xNX53Xo/4HbbJ9JBPCc2xZDATBgNVHSUEDDAKBggrBgEFBQcDAjALBgNVHQ8E
BAMCB4AwDQYJKoZIhvcNAQELBQADggEBAK+z/aOnInpRcGX/AT6tQm1g8JFdRTIe
yC5JmCj5C1oeuHInIWChgOM0XxxyE0ELVFQT1bF5EcG+1yglVup5GWXTOtzqSzwf
uZ8fBB3ekr9Ov80DTk7roLPJ97hAmlBnrnYdMnxNkwCBBBRbEkNXhbiz2uNv+ugQ
kSifd5o7kVQc6t1QnlGIMgm5N1hz1AxZ1qW1ZkF5uG7d3qapqy3iNjwX3FUtztW0
/LD64DSR0zXEGZMIeQZxGEAkuOW4q6Btnfoop3TD1S5tojbb7FIkgdXE/fqIi1gr
DELtGgzau4IadunmvdkiibQs5wJ3nwAVW+zrF2c/O59LzxJDhZELbZ8=
-----END CERTIFICATE-----
